target datalayout = "e-m:e-p270:32:32-p271:32:32-p272:64:64-i64:64-i128:128-f80:128-n8:16:32:64-S128"
target triple = "x86_64-unknown-linux-gnu"

%"class.grpc_core::Duration" = type { i64 }
%"struct.std::atomic.15" = type { %"struct.std::__atomic_base.16" }
%"struct.std::__atomic_base.16" = type { i8 }
%"class.grpc_event_engine::experimental::WorkStealingThreadPool::WorkStealingThreadPoolImpl" = type { %"class.std::enable_shared_from_this", i64, %"class.grpc_event_engine::experimental::BusyThreadCount", %"class.grpc_event_engine::experimental::LivingThreadCount", %"class.grpc_event_engine::experimental::WorkStealingThreadPool::TheftRegistry", %"class.grpc_event_engine::experimental::BasicWorkQueue", %"struct.std::atomic.15", %"struct.std::atomic.15", %"struct.std::atomic.15", %"struct.std::atomic", %"struct.std::atomic.15", %"class.grpc_event_engine::experimental::WorkStealingThreadPool::WorkSignal", %"class.grpc_event_engine::experimental::WorkStealingThreadPool::WorkStealingThreadPoolImpl::Lifeguard" }
%"class.std::enable_shared_from_this" = type { %"class.std::weak_ptr" }
%"class.std::weak_ptr" = type { %"class.std::__weak_ptr" }
%"class.std::__weak_ptr" = type { ptr, %"class.std::__weak_count" }
%"class.std::__weak_count" = type { ptr }
%"class.grpc_event_engine::experimental::BusyThreadCount" = type { %"class.std::vector", %"struct.std::atomic" }
%"class.std::vector" = type { %"struct.std::_Vector_base" }
%"struct.std::_Vector_base" = type { %"struct.std::_Vector_base<grpc_event_engine::experimental::BusyThreadCount::ShardedData, std::allocator<grpc_event_engine::experimental::BusyThreadCount::ShardedData>>::_Vector_impl" }
%"struct.std::_Vector_base<grpc_event_engine::experimental::BusyThreadCount::ShardedData, std::allocator<grpc_event_engine::experimental::BusyThreadCount::ShardedData>>::_Vector_impl" = type { %"struct.std::_Vector_base<grpc_event_engine::experimental::BusyThreadCount::ShardedData, std::allocator<grpc_event_engine::experimental::BusyThreadCount::ShardedData>>::_Vector_impl_data" }
%"struct.std::_Vector_base<grpc_event_engine::experimental::BusyThreadCount::ShardedData, std::allocator<grpc_event_engine::experimental::BusyThreadCount::ShardedData>>::_Vector_impl_data" = type { ptr, ptr, ptr }
%"class.grpc_event_engine::experimental::LivingThreadCount" = type { %"class.absl::lts_20230802::Mutex", %"class.absl::lts_20230802::CondVar", i64 }
%"class.absl::lts_20230802::Mutex" = type { %"struct.std::atomic.0" }
%"struct.std::atomic.0" = type { %"struct.std::__atomic_base.1" }
%"struct.std::__atomic_base.1" = type { i64 }
%"class.absl::lts_20230802::CondVar" = type { %"struct.std::atomic.0" }
%"class.grpc_event_engine::experimental::WorkStealingThreadPool::TheftRegistry" = type { %"class.absl::lts_20230802::Mutex", %"class.absl::lts_20230802::flat_hash_set" }
%"class.absl::lts_20230802::flat_hash_set" = type { %"class.absl::lts_20230802::container_internal::raw_hash_set" }
%"class.absl::lts_20230802::container_internal::raw_hash_set" = type { %"class.absl::lts_20230802::container_internal::CompressedTuple" }
%"class.absl::lts_20230802::container_internal::CompressedTuple" = type { %"struct.absl::lts_20230802::container_internal::internal_compressed_tuple::CompressedTupleImpl" }
%"struct.absl::lts_20230802::container_internal::internal_compressed_tuple::CompressedTupleImpl" = type { %"struct.absl::lts_20230802::container_internal::internal_compressed_tuple::Storage" }
%"struct.absl::lts_20230802::container_internal::internal_compressed_tuple::Storage" = type { %"class.absl::lts_20230802::container_internal::CommonFields" }
%"class.absl::lts_20230802::container_internal::CommonFields" = type { ptr, ptr, i64, %"class.absl::lts_20230802::container_internal::CompressedTuple.2" }
%"class.absl::lts_20230802::container_internal::CompressedTuple.2" = type { %"struct.absl::lts_20230802::container_internal::internal_compressed_tuple::CompressedTupleImpl.3" }
%"struct.absl::lts_20230802::container_internal::internal_compressed_tuple::CompressedTupleImpl.3" = type { %"struct.absl::lts_20230802::container_internal::internal_compressed_tuple::Storage.4" }
%"struct.absl::lts_20230802::container_internal::internal_compressed_tuple::Storage.4" = type { i64 }
%"class.grpc_event_engine::experimental::BasicWorkQueue" = type { %"class.grpc_event_engine::experimental::WorkQueue", %"class.absl::lts_20230802::Mutex", %"class.std::deque", ptr }
%"class.grpc_event_engine::experimental::WorkQueue" = type { ptr }
%"class.std::deque" = type { %"class.std::_Deque_base" }
%"class.std::_Deque_base" = type { %"struct.std::_Deque_base<grpc_event_engine::experimental::EventEngine::Closure *, std::allocator<grpc_event_engine::experimental::EventEngine::Closure *>>::_Deque_impl" }
%"struct.std::_Deque_base<grpc_event_engine::experimental::EventEngine::Closure *, std::allocator<grpc_event_engine::experimental::EventEngine::Closure *>>::_Deque_impl" = type { %"struct.std::_Deque_base<grpc_event_engine::experimental::EventEngine::Closure *, std::allocator<grpc_event_engine::experimental::EventEngine::Closure *>>::_Deque_impl_data" }
%"struct.std::_Deque_base<grpc_event_engine::experimental::EventEngine::Closure *, std::allocator<grpc_event_engine::experimental::EventEngine::Closure *>>::_Deque_impl_data" = type { ptr, i64, %"struct.std::_Deque_iterator", %"struct.std::_Deque_iterator" }
%"struct.std::_Deque_iterator" = type { ptr, ptr, ptr, ptr }
%"struct.std::atomic" = type { %"struct.std::__atomic_base" }
%"struct.std::__atomic_base" = type { i64 }
%"class.grpc_event_engine::experimental::WorkStealingThreadPool::WorkSignal" = type { %"class.absl::lts_20230802::Mutex", %"class.absl::lts_20230802::CondVar" }
%"class.grpc_event_engine::experimental::WorkStealingThreadPool::WorkStealingThreadPoolImpl::Lifeguard" = type <{ ptr, %"class.grpc_core::BackOff", %"class.std::unique_ptr", %"class.std::unique_ptr", %"struct.std::atomic.15", [7 x i8] }>
%"class.grpc_core::BackOff" = type { %"class.grpc_core::BackOff::Options", %"class.absl::lts_20230802::random_internal::NonsecureURBGBase", i8, %"class.grpc_core::Duration" }
%"class.grpc_core::BackOff::Options" = type { %"class.grpc_core::Duration", double, double, %"class.grpc_core::Duration" }
%"class.absl::lts_20230802::random_internal::NonsecureURBGBase" = type { %"class.absl::lts_20230802::random_internal::randen_engine" }
%"class.absl::lts_20230802::random_internal::randen_engine" = type { [264 x i8], i64, %"class.absl::lts_20230802::random_internal::Randen" }
%"class.absl::lts_20230802::random_internal::Randen" = type <{ ptr, i8, [7 x i8] }>
%"class.std::unique_ptr" = type { %"struct.std::__uniq_ptr_data" }
%"struct.std::__uniq_ptr_data" = type { %"class.std::__uniq_ptr_impl" }
%"class.std::__uniq_ptr_impl" = type { %"class.std::tuple" }
%"class.std::tuple" = type { %"struct.std::_Tuple_impl" }
%"struct.std::_Tuple_impl" = type { %"struct.std::_Head_base.18" }
%"struct.std::_Head_base.18" = type { ptr }
%"class.absl::lts_20230802::MutexLock" = type { ptr }

@_ZN17grpc_event_engine12experimental13g_local_queueE = thread_local global ptr null, align 8
@.str = private unnamed_addr constant [154 x i8] c"generated/home/dtcxzyw/WorkSpace/Projects/compilers/llvm-opt-benchmark/bench/grpc/grpc/src/core/lib/event_engine/thread_pool/work_stealing_thread_pool.cc\00", align 1
@.str.3 = private unnamed_addr constant [36 x i8] c"WorkStealingThreadPoolImpl::Quiesce\00", align 1
@.str.4 = private unnamed_addr constant [14 x i8] c"shutting down\00", align 1
@.str.5 = private unnamed_addr constant [15 x i8] c"queue_.Empty()\00", align 1

; Function Attrs: mustprogress nounwind uwtable
define linkonce_odr noundef i32 @_ZStanSt12memory_orderSt23__memory_order_modifier(i32 noundef %__m, i32 noundef %__mod) #5 comdat {
entry:
  %__m.addr = alloca i32, align 4
  %__mod.addr = alloca i32, align 4
  store i32 %__m, ptr %__m.addr, align 4
  store i32 %__mod, ptr %__mod.addr, align 4
  %0 = load i32, ptr %__m.addr, align 4
  %1 = load i32, ptr %__mod.addr, align 4
  %and = and i32 %0, %1
  ret i32 %and
}

; Function Attrs: mustprogress nounwind uwtable
define linkonce_odr void @_ZN4absl12lts_202308029MutexLockD2Ev(ptr noundef nonnull align 8 dereferenceable(8) %this) unnamed_addr #5 comdat align 2 personality ptr @__gxx_personality_v0 {
entry:
  %this.addr = alloca ptr, align 8
  store ptr %this, ptr %this.addr, align 8
  %this1 = load ptr, ptr %this.addr, align 8
  %mu_ = getelementptr inbounds %"class.absl::lts_20230802::MutexLock", ptr %this1, i32 0, i32 0
  %0 = load ptr, ptr %mu_, align 8
  invoke void @_ZN4absl12lts_202308025Mutex6UnlockEv(ptr noundef nonnull align 8 dereferenceable(8) %0)
          to label %invoke.cont unwind label %terminate.lpad

invoke.cont:                                      ; preds = %entry
  ret void

terminate.lpad:                                   ; preds = %entry
  %1 = landingpad { ptr, i32 }
          catch ptr null
  %2 = extractvalue { ptr, i32 } %1, 0
  call void @__clang_call_terminate(ptr %2) #20
  unreachable
}

; Function Attrs: mustprogress uwtable
define linkonce_odr void @_ZN4absl12lts_202308029MutexLockC2EPNS0_5MutexE(ptr noundef nonnull align 8 dereferenceable(8) %this, ptr noundef %mu) unnamed_addr #4 comdat align 2 {
entry:
  %this.addr = alloca ptr, align 8
  %mu.addr = alloca ptr, align 8
  store ptr %this, ptr %this.addr, align 8
  store ptr %mu, ptr %mu.addr, align 8
  %this1 = load ptr, ptr %this.addr, align 8
  %mu_ = getelementptr inbounds %"class.absl::lts_20230802::MutexLock", ptr %this1, i32 0, i32 0
  %0 = load ptr, ptr %mu.addr, align 8
  store ptr %0, ptr %mu_, align 8
  %mu_2 = getelementptr inbounds %"class.absl::lts_20230802::MutexLock", ptr %this1, i32 0, i32 0
  %1 = load ptr, ptr %mu_2, align 8
  call void @_ZN4absl12lts_202308025Mutex4LockEv(ptr noundef nonnull align 8 dereferenceable(8) %1)
  ret void
}

; Function Attrs: mustprogress nounwind uwtable
define linkonce_odr void @_ZNSt6atomicIbE5storeEbSt12memory_order(ptr noundef nonnull align 1 dereferenceable(1) %this, i1 noundef zeroext %__i, i32 noundef %__m) #5 comdat align 2 personality ptr @__gxx_personality_v0 {
entry:
  %this.addr.i = alloca ptr, align 8
  %__i.addr.i = alloca i8, align 1
  %__m.addr.i = alloca i32, align 4
  %__b.i = alloca i32, align 4
  %.atomictmp.i = alloca i8, align 1
  %this.addr = alloca ptr, align 8
  %__i.addr = alloca i8, align 1
  %__m.addr = alloca i32, align 4
  store ptr %this, ptr %this.addr, align 8
  %frombool = zext i1 %__i to i8
  store i8 %frombool, ptr %__i.addr, align 1
  store i32 %__m, ptr %__m.addr, align 4
  %this1 = load ptr, ptr %this.addr, align 8
  %_M_base = getelementptr inbounds %"struct.std::atomic.15", ptr %this1, i32 0, i32 0
  %0 = load i8, ptr %__i.addr, align 1
  %tobool = trunc i8 %0 to i1
  %1 = load i32, ptr %__m.addr, align 4
  store ptr %_M_base, ptr %this.addr.i, align 8
  %frombool.i = zext i1 %tobool to i8
  store i8 %frombool.i, ptr %__i.addr.i, align 1
  store i32 %1, ptr %__m.addr.i, align 4
  %this1.i = load ptr, ptr %this.addr.i, align 8
  %2 = load i32, ptr %__m.addr.i, align 4
  %call.i = invoke noundef i32 @_ZStanSt12memory_orderSt23__memory_order_modifier(i32 noundef %2, i32 noundef 65535)
          to label %invoke.cont.i unwind label %terminate.lpad.i

invoke.cont.i:                                    ; preds = %entry
  store i32 %call.i, ptr %__b.i, align 4
  %3 = load i32, ptr %__m.addr.i, align 4
  %4 = load i8, ptr %__i.addr.i, align 1
  %tobool.i = trunc i8 %4 to i1
  %frombool8.i = zext i1 %tobool.i to i8
  store i8 %frombool8.i, ptr %.atomictmp.i, align 1
  switch i32 %3, label %monotonic.i [
    i32 3, label %release.i
    i32 5, label %seqcst.i
  ]

monotonic.i:                                      ; preds = %invoke.cont.i
  %5 = load i8, ptr %.atomictmp.i, align 1
  store atomic i8 %5, ptr %this1.i monotonic, align 1
  br label %_ZNSt13__atomic_baseIbE5storeEbSt12memory_order.exit

release.i:                                        ; preds = %invoke.cont.i
  %6 = load i8, ptr %.atomictmp.i, align 1
  store atomic i8 %6, ptr %this1.i release, align 1
  br label %_ZNSt13__atomic_baseIbE5storeEbSt12memory_order.exit

seqcst.i:                                         ; preds = %invoke.cont.i
  %7 = load i8, ptr %.atomictmp.i, align 1
  store atomic i8 %7, ptr %this1.i seq_cst, align 1
  br label %_ZNSt13__atomic_baseIbE5storeEbSt12memory_order.exit

terminate.lpad.i:                                 ; preds = %entry
  %8 = landingpad { ptr, i32 }
          catch ptr null
  %9 = extractvalue { ptr, i32 } %8, 0
  call void @__clang_call_terminate(ptr %9) #20
  unreachable

_ZNSt13__atomic_baseIbE5storeEbSt12memory_order.exit: ; preds = %seqcst.i, %release.i, %monotonic.i
  ret void
}

; Function Attrs: mustprogress uwtable
define void @_ZN17grpc_event_engine12experimental22WorkStealingThreadPool10WorkSignal9SignalAllEv(ptr noundef nonnull align 8 dereferenceable(16) %this) #4 align 2 personality ptr @__gxx_personality_v0 {
entry:
  %this.addr = alloca ptr, align 8
  %lock = alloca %"class.absl::lts_20230802::MutexLock", align 8
  %exn.slot = alloca ptr, align 8
  %ehselector.slot = alloca i32, align 4
  store ptr %this, ptr %this.addr, align 8
  %this1 = load ptr, ptr %this.addr, align 8
  %mu_ = getelementptr inbounds %"class.grpc_event_engine::experimental::WorkStealingThreadPool::WorkSignal", ptr %this1, i32 0, i32 0
  call void @_ZN4absl12lts_202308029MutexLockC2EPNS0_5MutexE(ptr noundef nonnull align 8 dereferenceable(8) %lock, ptr noundef %mu_)
  %cv_ = getelementptr inbounds %"class.grpc_event_engine::experimental::WorkStealingThreadPool::WorkSignal", ptr %this1, i32 0, i32 1
  invoke void @_ZN4absl12lts_202308027CondVar9SignalAllEv(ptr noundef nonnull align 8 dereferenceable(8) %cv_)
          to label %invoke.cont unwind label %lpad

invoke.cont:                                      ; preds = %entry
  call void @_ZN4absl12lts_202308029MutexLockD2Ev(ptr noundef nonnull align 8 dereferenceable(8) %lock) #3
  ret void

lpad:                                             ; preds = %entry
  %0 = landingpad { ptr, i32 }
          cleanup
  %1 = extractvalue { ptr, i32 } %0, 0
  store ptr %1, ptr %exn.slot, align 8
  %2 = extractvalue { ptr, i32 } %0, 1
  store i32 %2, ptr %ehselector.slot, align 4
  call void @_ZN4absl12lts_202308029MutexLockD2Ev(ptr noundef nonnull align 8 dereferenceable(8) %lock) #3
  br label %eh.resume

eh.resume:                                        ; preds = %lpad
  %exn = load ptr, ptr %exn.slot, align 8
  %sel = load i32, ptr %ehselector.slot, align 4
  %lpad.val = insertvalue { ptr, i32 } poison, ptr %exn, 0
  %lpad.val2 = insertvalue { ptr, i32 } %lpad.val, i32 %sel, 1
  resume { ptr, i32 } %lpad.val2
}

; Function Attrs: mustprogress nounwind uwtable
define linkonce_odr noundef ptr @_ZN17grpc_event_engine12experimental22WorkStealingThreadPool26WorkStealingThreadPoolImpl11work_signalEv(ptr noundef nonnull align 8 dereferenceable(632) %this) #5 comdat align 2 {
entry:
  %this.addr = alloca ptr, align 8
  store ptr %this, ptr %this.addr, align 8
  %this1 = load ptr, ptr %this.addr, align 8
  %work_signal_ = getelementptr inbounds %"class.grpc_event_engine::experimental::WorkStealingThreadPool::WorkStealingThreadPoolImpl", ptr %this1, i32 0, i32 11
  ret ptr %work_signal_
}

; Function Attrs: mustprogress uwtable
define void @_ZN17grpc_event_engine12experimental22WorkStealingThreadPool26WorkStealingThreadPoolImpl7QuiesceEv(ptr noundef nonnull align 8 dereferenceable(632) %this) #4 align 2 {
entry:
  %this.addr = alloca ptr, align 8
  %is_threadpool_thread = alloca i8, align 1
  store ptr %this, ptr %this.addr, align 8
  %this1 = load ptr, ptr %this.addr, align 8
  call void (ptr, i32, i32, ptr, ...) @gpr_log(ptr noundef @.str, i32 noundef 216, i32 noundef 1, ptr noundef @.str.3)
  call void @_ZN17grpc_event_engine12experimental22WorkStealingThreadPool26WorkStealingThreadPoolImpl11SetShutdownEb(ptr noundef nonnull align 8 dereferenceable(632) %this1, i1 noundef zeroext true)
  %0 = call align 8 ptr @llvm.threadlocal.address.p0(ptr align 8 @_ZN17grpc_event_engine12experimental13g_local_queueE)
  %1 = load ptr, ptr %0, align 8
  %cmp = icmp ne ptr %1, null
  %frombool = zext i1 %cmp to i8
  store i8 %frombool, ptr %is_threadpool_thread, align 1
  %call = call noundef ptr @_ZN17grpc_event_engine12experimental22WorkStealingThreadPool26WorkStealingThreadPoolImpl11work_signalEv(ptr noundef nonnull align 8 dereferenceable(632) %this1)
  call void @_ZN17grpc_event_engine12experimental22WorkStealingThreadPool10WorkSignal9SignalAllEv(ptr noundef nonnull align 8 dereferenceable(16) %call)
  %living_thread_count_ = getelementptr inbounds %"class.grpc_event_engine::experimental::WorkStealingThreadPool::WorkStealingThreadPoolImpl", ptr %this1, i32 0, i32 3
  %2 = load i8, ptr %is_threadpool_thread, align 1
  %tobool = trunc i8 %2 to i1
  %cond = select i1 %tobool, i32 1, i32 0
  %conv = sext i32 %cond to i64
  call void @_ZN17grpc_event_engine12experimental17LivingThreadCount21BlockUntilThreadCountEmPKc(ptr noundef nonnull align 8 dereferenceable(24) %living_thread_count_, i64 noundef %conv, ptr noundef @.str.4)
  br label %do.body

do.body:                                          ; preds = %entry
  %queue_ = getelementptr inbounds %"class.grpc_event_engine::experimental::WorkStealingThreadPool::WorkStealingThreadPoolImpl", ptr %this1, i32 0, i32 5
  %call2 = call noundef zeroext i1 @_ZNK17grpc_event_engine12experimental14BasicWorkQueue5EmptyEv(ptr noundef nonnull align 8 dereferenceable(104) %queue_)
  %lnot = xor i1 %call2, true
  br i1 %lnot, label %if.then, label %if.end

if.then:                                          ; preds = %do.body
  call void @gpr_assertion_failed(ptr noundef @.str, i32 noundef 226, ptr noundef @.str.5) #19
  unreachable

if.end:                                           ; preds = %do.body
  br label %do.end

do.end:                                           ; preds = %if.end
  %quiesced_ = getelementptr inbounds %"class.grpc_event_engine::experimental::WorkStealingThreadPool::WorkStealingThreadPoolImpl", ptr %this1, i32 0, i32 8
  call void @_ZNSt6atomicIbE5storeEbSt12memory_order(ptr noundef nonnull align 1 dereferenceable(1) %quiesced_, i1 noundef zeroext true, i32 noundef 0) #3
  %lifeguard_ = getelementptr inbounds %"class.grpc_event_engine::experimental::WorkStealingThreadPool::WorkStealingThreadPoolImpl", ptr %this1, i32 0, i32 12
  call void @_ZN17grpc_event_engine12experimental22WorkStealingThreadPool26WorkStealingThreadPoolImpl9Lifeguard26BlockUntilShutdownAndResetEv(ptr noundef nonnull align 8 dereferenceable(361) %lifeguard_)
  ret void
}