; Function Attrs: mustprogress uwtable
define void @_ZN17grpc_event_engine12experimental22WorkStealingThreadPool26WorkStealingThreadPoolImpl7QuiesceEv(ptr noundef nonnull align 8 dereferenceable(632) %this) local_unnamed_addr #3 align 2 personality ptr @__gxx_personality_v0 {
entry:
  tail call void (ptr, i32, i32, ptr, ...) @gpr_log(ptr noundef nonnull @.str, i32 noundef 216, i32 noundef 1, ptr noundef nonnull @.str.3)
  tail call void @_ZN17grpc_event_engine12experimental22WorkStealingThreadPool26WorkStealingThreadPoolImpl11SetShutdownEb(ptr noundef nonnull align 8 dereferenceable(632) %this, i1 noundef zeroext true)
  %0 = tail call align 8 ptr @llvm.threadlocal.address.p0(ptr align 8 @_ZN17grpc_event_engine12experimental13g_local_queueE)
  %1 = load ptr, ptr %0, align 8
  %cmp.not = icmp ne ptr %1, null
  %work_signal_.i = getelementptr inbounds i8, ptr %this, i64 248
  tail call void @_ZN4absl12lts_202308025Mutex4LockEv(ptr noundef nonnull align 8 dereferenceable(8) %work_signal_.i)
  %cv_.i = getelementptr inbounds i8, ptr %this, i64 256
  invoke void @_ZN4absl12lts_202308027CondVar9SignalAllEv(ptr noundef nonnull align 8 dereferenceable(8) %cv_.i)
          to label %invoke.cont.i unwind label %lpad.i

invoke.cont.i:                                    ; preds = %entry
  invoke void @_ZN4absl12lts_202308025Mutex6UnlockEv(ptr noundef nonnull align 8 dereferenceable(8) %work_signal_.i)
          to label %_ZN17grpc_event_engine12experimental22WorkStealingThreadPool10WorkSignal9SignalAllEv.exit unwind label %terminate.lpad.i.i

terminate.lpad.i.i:                               ; preds = %invoke.cont.i
  %2 = landingpad { ptr, i32 }
          catch ptr null
  %3 = extractvalue { ptr, i32 } %2, 0
  tail call void @__clang_call_terminate(ptr %3) #24
  unreachable

lpad.i:                                           ; preds = %entry
  %4 = landingpad { ptr, i32 }
          cleanup
  invoke void @_ZN4absl12lts_202308025Mutex6UnlockEv(ptr noundef nonnull align 8 dereferenceable(8) %work_signal_.i)
          to label %_ZN4absl12lts_202308029MutexLockD2Ev.exit2.i unwind label %terminate.lpad.i1.i

terminate.lpad.i1.i:                              ; preds = %lpad.i
  %5 = landingpad { ptr, i32 }
          catch ptr null
  %6 = extractvalue { ptr, i32 } %5, 0
  tail call void @__clang_call_terminate(ptr %6) #24
  unreachable

_ZN4absl12lts_202308029MutexLockD2Ev.exit2.i:     ; preds = %lpad.i
  resume { ptr, i32 } %4

_ZN17grpc_event_engine12experimental22WorkStealingThreadPool10WorkSignal9SignalAllEv.exit: ; preds = %invoke.cont.i
  %living_thread_count_ = getelementptr inbounds i8, ptr %this, i64 56
  %conv = zext i1 %cmp.not to i64
  tail call void @_ZN17grpc_event_engine12experimental17LivingThreadCount21BlockUntilThreadCountEmPKc(ptr noundef nonnull align 8 dereferenceable(24) %living_thread_count_, i64 noundef %conv, ptr noundef nonnull @.str.4)
  %queue_ = getelementptr inbounds i8, ptr %this, i64 120
  %call2 = tail call noundef zeroext i1 @_ZNK17grpc_event_engine12experimental14BasicWorkQueue5EmptyEv(ptr noundef nonnull align 8 dereferenceable(104) %queue_)
  br i1 %call2, label %do.end, label %if.then

if.then:                                          ; preds = %_ZN17grpc_event_engine12experimental22WorkStealingThreadPool10WorkSignal9SignalAllEv.exit
  tail call void @gpr_assertion_failed(ptr noundef nonnull @.str, i32 noundef 226, ptr noundef nonnull @.str.5) #25
  unreachable

do.end:                                           ; preds = %_ZN17grpc_event_engine12experimental22WorkStealingThreadPool10WorkSignal9SignalAllEv.exit
  %quiesced_ = getelementptr inbounds i8, ptr %this, i64 226
  store atomic i8 1, ptr %quiesced_ monotonic, align 2
  %lifeguard_ = getelementptr inbounds i8, ptr %this, i64 264
  tail call void @_ZN17grpc_event_engine12experimental22WorkStealingThreadPool26WorkStealingThreadPoolImpl9Lifeguard26BlockUntilShutdownAndResetEv(ptr noundef nonnull align 8 dereferenceable(361) %lifeguard_)
  ret void
}